; Function Attrs: mustprogress uwtable
define dso_local void @_ZNK8V3Global9checkTreeEv(ptr noundef nonnull readonly align 8 captures(none) dereferenceable(1896) %0) local_unnamed_addr #3 align 2 {
  %2 = load i8, ptr getelementptr inbounds nuw (i8, ptr @v3Global, i64 994), align 2, !tbaa !78, !range !79, !noundef !80
  %3 = trunc nuw i8 %2 to i1
  br i1 %3, label %4, label %_ZNK7AstNode9checkTreeEv.exit

4:                                                ; preds = %1
  %5 = load ptr, ptr %0, align 8, !tbaa !4
  %6 = getelementptr inbounds nuw i8, ptr %5, i64 16
  %7 = load ptr, ptr %6, align 8, !tbaa !81
  tail call void @_ZNK7AstNode13checkTreeIterEPKS_(ptr noundef nonnull align 8 dereferenceable(152) %5, ptr noundef %7)
  br label %_ZNK7AstNode9checkTreeEv.exit

_ZNK7AstNode9checkTreeEv.exit:                    ; preds = %1, %4
  ret void
}